Certificate:
    Data:
        Version: 3 (0x2)
        Serial Number: 1 (0x1)
        Signature Algorithm: sha1WithRSAEncryption
        Issuer: DC=org, DC=simple, O=Simple Inc, OU=Simple Signing CA, CN=Simple Signing CA
        Validity
            Not Before: Dec  3 05:54:04 2023 GMT
            Not After : Dec  2 05:54:04 2025 GMT
        Subject: DC=org, DC=simple, O=Simple Inc, CN=Fred Flinstone
        Subject Public Key Info:
            Public Key Algorithm: rsaEncryption
                Public-Key: (2048 bit)
                Modulus:
                    00:bc:48:f7:2b:f3:d2:83:f0:d5:19:12:ca:97:eb:
                    4e:65:66:44:2b:3e:01:6c:3c:3f:10:c0:56:de:7d:
                    74:18:9d:cc:a2:e5:f8:ce:38:1d:0d:7b:83:cc:5a:
                    4f:96:9a:74:09:f3:4e:00:3d:19:83:c3:6c:95:dc:
                    56:66:41:53:a1:82:21:80:94:bd:13:dc:85:a7:cf:
                    93:72:18:0c:ef:8d:5f:69:d6:b1:29:42:ba:82:54:
                    31:4b:a1:eb:c9:a8:85:1d:66:07:25:a3:6f:55:14:
                    f3:8b:c4:43:5b:08:13:7c:3b:da:41:0b:31:30:70:
                    55:49:c6:15:b3:41:10:72:9b:a3:f9:12:40:6f:7c:
                    5e:e9:07:7a:32:9d:ac:38:ac:7c:67:27:0b:5d:04:
                    1e:f8:b2:e4:a2:95:72:59:79:9e:6c:97:5f:24:af:
                    9a:ab:aa:b0:be:82:27:53:1c:a9:5a:3e:11:21:0f:
                    79:b1:dd:4f:a6:2f:31:ee:0e:09:3d:9c:b5:cd:15:
                    ab:27:aa:6e:36:e1:cd:f2:79:a3:be:a7:ce:da:4e:
                    eb:2f:f3:9f:ea:70:7a:e0:f8:9e:58:0b:a7:a6:92:
                    99:54:82:4b:2e:64:ed:c7:29:6b:79:e4:6e:c5:fc:
                    dc:87:59:f5:7a:d9:e7:df:a6:c2:2e:2a:f5:19:44:
                    ba:a7
                Exponent: 65537 (0x10001)
        X509v3 extensions:
            X509v3 Key Usage: critical
                Digital Signature, Key Encipherment
            X509v3 Basic Constraints: 
                CA:FALSE
            X509v3 Extended Key Usage: 
                E-mail Protection, TLS Web Client Authentication
            X509v3 Subject Key Identifier: 
                84:AD:3E:F1:EE:6E:E1:2B:97:2F:8B:84:9E:28:8D:F6:51:4B:AF:76
            X509v3 Authority Key Identifier: 
                F9:6C:0C:88:23:7D:9B:19:13:9F:FD:C5:99:25:29:C5:1A:11:82:C2
            X509v3 Subject Alternative Name: 
                email:fred@simple.org
    Signature Algorithm: sha1WithRSAEncryption
    Signature Value:
        62:01:a0:8e:58:08:b5:ae:bd:9d:23:65:db:5d:43:a1:fb:1e:
        13:62:68:4e:1a:55:03:92:d1:df:e5:b6:3a:02:52:bd:1d:75:
        ea:72:ad:93:91:f8:bd:fc:3a:30:92:31:25:c5:0a:e0:bc:6a:
        25:73:d0:80:de:98:4f:ee:9b:b7:6f:2f:d3:60:62:f4:5f:6b:
        b0:9e:21:69:b0:60:48:d6:89:8d:c0:f9:be:f9:8b:ce:2c:20:
        4f:3f:c2:6c:19:03:d3:81:bb:32:81:c5:ab:6a:93:fa:34:d7:
        99:d4:e1:71:09:08:1d:85:4c:7d:25:ba:9b:e8:d5:8a:19:a0:
        5d:3a:25:0a:51:25:38:28:34:ae:d4:43:bd:28:26:f7:aa:4a:
        a7:b8:fa:da:73:db:bf:6b:5c:fc:fe:91:54:50:d7:05:90:f2:
        34:62:84:37:95:64:7b:9d:0f:de:80:4a:49:52:f4:8f:a4:38:
        b1:d8:d6:c1:a0:c7:7f:ac:1e:22:1b:66:09:f8:2d:bf:01:a9:
        3f:2c:0f:fe:e4:e8:dd:d7:ca:fe:00:c8:20:a6:c2:92:80:2d:
        19:1a:ef:98:a8:d6:2c:67:5c:1c:e6:52:d7:46:99:a0:61:ad:
        ba:4c:02:2a:92:61:0a:ff:ad:f4:c1:d2:06:d4:8c:7e:2f:77:
        d9:ea:ab:ef
-----BEGIN CERTIFICATE-----
MIID6jCCAtKgAwIBAgIBATANBgkqhkiG9w0BAQUFADB6MRMwEQYKCZImiZPyLGQB
GRYDb3JnMRYwFAYKCZImiZPyLGQBGRYGc2ltcGxlMRMwEQYDVQQKDApTaW1wbGUg
SW5jMRowGAYDVQQLDBFTaW1wbGUgU2lnbmluZyBDQTEaMBgGA1UEAwwRU2ltcGxl
IFNpZ25pbmcgQ0EwHhcNMjMxMjAzMDU1NDA0WhcNMjUxMjAyMDU1NDA0WjBbMRMw
EQYKCZImiZPyLGQBGRYDb3JnMRYwFAYKCZImiZPyLGQBGRYGc2ltcGxlMRMwEQYD
VQQKDApTaW1wbGUgSW5jMRcwFQYDVQQDDA5GcmVkIEZsaW5zdG9uZTCCASIwDQYJ
KoZIhvcNAQEBBQADggEPADCCAQoCggEBALxI9yvz0oPw1RkSypfrTmVmRCs+AWw8
PxDAVt59dBidzKLl+M44HQ17g8xaT5aadAnzTgA9GYPDbJXcVmZBU6GCIYCUvRPc
hafPk3IYDO+NX2nWsSlCuoJUMUuh68mohR1mByWjb1UU84vEQ1sIE3w72kELMTBw
VUnGFbNBEHKbo/kSQG98XukHejKdrDisfGcnC10EHviy5KKVcll5nmyXXySvmquq
sL6CJ1McqVo+ESEPebHdT6YvMe4OCT2ctc0VqyeqbjbhzfJ5o76nztpO6y/zn+pw
euD4nlgLp6aSmVSCSy5k7ccpa3nkbsX83IdZ9XrZ59+mwi4q9RlEuqcCAwEAAaOB
mTCBljAOBgNVHQ8BAf8EBAMCBaAwCQYDVR0TBAIwADAdBgNVHSUEFjAUBggrBgEF
BQcDBAYIKwYBBQUHAwIwHQYDVR0OBBYEFIStPvHubuErly+LhJ4ojfZRS692MB8G
A1UdIwQYMBaAFPlsDIgjfZsZE5/9xZklKcUaEYLCMBoGA1UdEQQTMBGBD2ZyZWRA
c2ltcGxlLm9yZzANBgkqhkiG9w0BAQUFAAOCAQEAYgGgjlgIta69nSNl211Dofse
E2JoThpVA5LR3+W2OgJSvR116nKtk5H4vfw6MJIxJcUK4LxqJXPQgN6YT+6bt28v
02Bi9F9rsJ4habBgSNaJjcD5vvmLziwgTz/CbBkD04G7MoHFq2qT+jTXmdThcQkI
HYVMfSW6m+jVihmgXTolClElOCg0rtRDvSgm96pKp7j62nPbv2tc/P6RVFDXBZDy
NGKEN5Vke50P3oBKSVL0j6Q4sdjWwaDHf6weIhtmCfgtvwGpPywP/uTo3dfK/gDI
IKbCkoAtGRrvmKjWLGdcHOZS10aZoGGtukwCKpJhCv+t9MHSBtSMfi932eqr7w==
-----END CERTIFICATE-----
