Certificate:
    Data:
        Version: 3 (0x2)
        Serial Number: 2 (0x2)
        Signature Algorithm: sha1WithRSAEncryption
        Issuer: DC=org, DC=simple, O=Simple Inc, OU=Simple Signing CA, CN=Simple Signing CA
        Validity
            Not Before: Dec  3 06:01:22 2023 GMT
            Not After : Dec  2 06:01:22 2025 GMT
        Subject: DC=org, DC=simple, O=Simple Inc, CN=www.simple.org
        Subject Public Key Info:
            Public Key Algorithm: rsaEncryption
                Public-Key: (2048 bit)
                Modulus:
                    00:d2:d9:87:34:c6:04:ff:f2:16:39:b3:85:44:55:
                    d7:fa:41:16:01:6a:92:d2:5b:92:69:ae:ed:3f:f5:
                    d0:91:96:18:f0:de:53:c0:a2:a0:51:0a:fe:05:f5:
                    44:f2:04:78:0c:1d:c8:d9:93:c8:c9:95:e1:7c:12:
                    85:2b:aa:b2:30:6d:41:eb:b7:3e:be:42:8e:2b:1a:
                    f3:39:04:7e:c3:53:c5:a1:cd:bb:23:5f:cf:60:e8:
                    d2:84:8a:6f:8c:b9:d8:49:97:93:5e:27:66:2e:79:
                    16:6a:02:32:0e:9d:eb:10:61:b3:22:e6:a0:89:c5:
                    99:92:b3:12:97:60:3c:7e:f5:77:c7:2a:c5:20:3c:
                    22:46:e3:ad:f4:a3:6a:57:9b:12:4f:e7:70:1a:5d:
                    fb:55:ba:6e:a3:af:3d:d5:46:64:87:c5:75:33:3a:
                    03:be:43:70:9b:fb:9f:0d:0e:5d:90:92:63:fb:4d:
                    f0:4f:c2:59:46:59:35:da:68:8b:a6:8d:71:97:38:
                    b2:5d:11:72:fd:57:59:b2:23:69:e5:4a:48:d9:df:
                    1c:b8:b1:69:95:e2:ba:5c:30:0e:29:cf:26:a7:7d:
                    12:46:fc:64:57:a9:03:93:9e:ca:1a:2c:66:42:fe:
                    cd:de:3b:bd:63:ed:ce:9c:ae:e5:0b:01:6e:20:7f:
                    d9:23
                Exponent: 65537 (0x10001)
        X509v3 extensions:
            X509v3 Key Usage: critical
                Digital Signature, Key Encipherment
            X509v3 Basic Constraints: 
                CA:FALSE
            X509v3 Extended Key Usage: 
                TLS Web Server Authentication, TLS Web Client Authentication
            X509v3 Subject Key Identifier: 
                1C:84:13:83:36:CA:5D:2A:4D:16:81:91:72:5D:F2:F7:4F:2F:F1:57
            X509v3 Authority Key Identifier: 
                F9:6C:0C:88:23:7D:9B:19:13:9F:FD:C5:99:25:29:C5:1A:11:82:C2
            X509v3 Subject Alternative Name: 
                DNS:www.simple.org
    Signature Algorithm: sha1WithRSAEncryption
    Signature Value:
        49:ee:33:f9:7e:04:77:c1:7e:5e:d9:18:8f:99:b9:75:f7:a4:
        97:78:21:79:c8:7d:72:a6:39:52:1b:48:18:25:61:9c:0c:3b:
        86:06:3e:f5:f8:60:7a:cc:87:81:21:12:5b:dd:70:57:bb:23:
        13:f0:6a:04:7d:15:b6:18:ef:89:c6:ab:7d:b6:37:d9:ad:1f:
        99:49:79:e6:bb:f2:2b:85:e8:4d:0c:4f:73:a6:30:fc:89:b2:
        7f:ee:54:f9:ac:43:dc:3c:83:fd:f3:58:4d:29:5e:55:6b:5a:
        ca:b5:28:ab:0e:01:b6:e8:c0:51:76:43:d8:fa:ad:e8:af:9d:
        7b:18:64:c5:f7:de:dd:4d:86:35:ad:05:5e:ff:6b:ef:4e:7c:
        ec:58:f0:68:c7:6f:b4:05:91:20:af:5d:ed:0d:ba:39:96:97:
        46:c6:e4:8d:48:f7:a9:0c:cb:a8:c8:59:f6:f4:47:9c:1d:10:
        af:17:fe:09:91:bd:2e:06:0b:85:2d:90:66:36:8a:be:b6:70:
        60:e4:5f:7e:41:c0:c9:45:ba:64:87:06:35:95:f3:fa:7a:ed:
        9f:ee:cc:cb:42:50:ba:28:fb:34:68:d0:f5:9d:1e:1b:93:57:
        28:10:58:5f:74:39:c0:21:09:de:59:71:8a:e5:7a:06:a2:a7:
        e6:17:0b:2e
-----BEGIN CERTIFICATE-----
MIID6TCCAtGgAwIBAgIBAjANBgkqhkiG9w0BAQUFADB6MRMwEQYKCZImiZPyLGQB
GRYDb3JnMRYwFAYKCZImiZPyLGQBGRYGc2ltcGxlMRMwEQYDVQQKDApTaW1wbGUg
SW5jMRowGAYDVQQLDBFTaW1wbGUgU2lnbmluZyBDQTEaMBgGA1UEAwwRU2ltcGxl
IFNpZ25pbmcgQ0EwHhcNMjMxMjAzMDYwMTIyWhcNMjUxMjAyMDYwMTIyWjBbMRMw
EQYKCZImiZPyLGQBGRYDb3JnMRYwFAYKCZImiZPyLGQBGRYGc2ltcGxlMRMwEQYD
VQQKDApTaW1wbGUgSW5jMRcwFQYDVQQDDA53d3cuc2ltcGxlLm9yZzCCASIwDQYJ
KoZIhvcNAQEBBQADggEPADCCAQoCggEBANLZhzTGBP/yFjmzhURV1/pBFgFqktJb
kmmu7T/10JGWGPDeU8CioFEK/gX1RPIEeAwdyNmTyMmV4XwShSuqsjBtQeu3Pr5C
jisa8zkEfsNTxaHNuyNfz2Do0oSKb4y52EmXk14nZi55FmoCMg6d6xBhsyLmoInF
mZKzEpdgPH71d8cqxSA8IkbjrfSjalebEk/ncBpd+1W6bqOvPdVGZIfFdTM6A75D
cJv7nw0OXZCSY/tN8E/CWUZZNdpoi6aNcZc4sl0Rcv1XWbIjaeVKSNnfHLixaZXi
ulwwDinPJqd9Ekb8ZFepA5OeyhosZkL+zd47vWPtzpyu5QsBbiB/2SMCAwEAAaOB
mDCBlTAOBgNVHQ8BAf8EBAMCBaAwCQYDVR0TBAIwADAdBgNVHSUEFjAUBggrBgEF
BQcDAQYIKwYBBQUHAwIwHQYDVR0OBBYEFByEE4M2yl0qTRaBkXJd8vdPL/FXMB8G
A1UdIwQYMBaAFPlsDIgjfZsZE5/9xZklKcUaEYLCMBkGA1UdEQQSMBCCDnd3dy5z
aW1wbGUub3JnMA0GCSqGSIb3DQEBBQUAA4IBAQBJ7jP5fgR3wX5e2RiPmbl196SX
eCF5yH1ypjlSG0gYJWGcDDuGBj71+GB6zIeBIRJb3XBXuyMT8GoEfRW2GO+Jxqt9
tjfZrR+ZSXnmu/IrhehNDE9zpjD8ibJ/7lT5rEPcPIP981hNKV5Va1rKtSirDgG2
6MBRdkPY+q3or517GGTF997dTYY1rQVe/2vvTnzsWPBox2+0BZEgr13tDbo5lpdG
xuSNSPepDMuoyFn29EecHRCvF/4Jkb0uBguFLZBmNoq+tnBg5F9+QcDJRbpkhwY1
lfP6eu2f7szLQlC6KPs0aND1nR4bk1coEFhfdDnAIQneWXGK5XoGoqfmFwsu
-----END CERTIFICATE-----
