Certificate:
    Data:
        Version: 3 (0x2)
        Serial Number: 2 (0x2)
        Signature Algorithm: sha1WithRSAEncryption
        Issuer: DC=org, DC=simple, O=Simple Inc, OU=Simple Root CA, CN=Simple Root CA
        Validity
            Not Before: Dec  3 05:50:02 2023 GMT
            Not After : Dec  2 05:50:02 2033 GMT
        Subject: DC=org, DC=simple, O=Simple Inc, OU=Simple Signing CA, CN=Simple Signing CA
        Subject Public Key Info:
            Public Key Algorithm: rsaEncryption
                Public-Key: (2048 bit)
                Modulus:
                    00:b1:0b:d5:44:e1:17:be:ea:b6:9b:08:ea:60:0f:
                    49:96:22:5a:24:ec:f2:21:95:15:b9:bc:a3:75:c5:
                    02:cd:1d:6b:ef:f9:45:f8:ec:fe:43:90:0b:d9:59:
                    52:48:73:fb:36:4c:7f:7c:7b:ac:4f:49:31:18:f6:
                    fc:1d:ad:a2:86:65:44:82:3f:08:9a:3f:35:8e:d9:
                    3a:5b:dc:d0:36:23:13:49:34:f1:24:55:74:5b:ca:
                    51:32:6b:85:86:34:e7:fc:85:66:d2:b0:4b:27:2e:
                    b2:51:69:39:4d:f2:8d:91:5d:72:41:ec:65:55:58:
                    1b:ef:0e:5e:cb:40:ed:f6:27:c7:ef:6d:84:ed:83:
                    e2:49:86:6e:07:da:8a:08:d2:77:90:f9:09:6a:4e:
                    be:14:cc:c4:2f:0a:49:ef:01:dd:bf:6e:af:6a:1a:
                    87:6b:1b:70:71:72:6c:23:12:a8:43:d8:fd:5f:53:
                    3f:45:d5:f9:76:bc:19:ac:a0:88:c5:6d:07:e3:be:
                    7d:22:74:b5:40:3d:21:e8:ea:99:b4:82:5e:ce:06:
                    d5:3a:2f:57:a2:26:90:04:80:30:32:82:04:6d:ac:
                    54:bb:75:e7:bf:52:ff:d9:80:66:0f:12:fc:43:ef:
                    56:49:e0:b1:f2:e9:af:32:ae:da:dc:bc:5b:fa:fc:
                    a1:5d
                Exponent: 65537 (0x10001)
        X509v3 extensions:
            X509v3 Key Usage: critical
                Certificate Sign, CRL Sign
            X509v3 Basic Constraints: critical
                CA:TRUE, pathlen:0
            X509v3 Subject Key Identifier: 
                F9:6C:0C:88:23:7D:9B:19:13:9F:FD:C5:99:25:29:C5:1A:11:82:C2
            X509v3 Authority Key Identifier: 
                B7:B6:B0:F5:03:F4:D1:FE:F8:0B:BB:AE:31:3E:DF:7A:19:F0:7B:47
    Signature Algorithm: sha1WithRSAEncryption
    Signature Value:
        27:33:f5:77:7c:f9:6a:ff:79:9a:8c:e8:35:d2:ba:c8:8a:81:
        e5:b0:51:26:fa:b9:01:96:3f:e9:0f:5f:55:8f:97:c8:97:1b:
        92:45:d1:83:48:7f:5e:f3:df:e4:88:a3:90:0b:70:d8:59:dd:
        c5:b2:c7:da:5a:1e:9a:e3:73:af:cc:f6:17:5e:e2:2e:ca:f0:
        a6:57:e0:2a:8d:58:2e:70:e1:24:da:6a:2a:5a:cf:10:57:c8:
        72:84:02:1b:15:8e:68:ff:c5:f1:81:97:95:49:ed:3c:43:0c:
        6a:a5:e9:df:14:0b:6c:d7:72:ba:a8:ae:31:01:31:05:98:1e:
        7c:85:55:47:06:c6:8a:31:53:f6:d7:78:bf:cd:14:29:bb:9e:
        9c:28:3a:a5:2c:7d:01:df:1d:d1:0c:53:12:a3:13:82:4f:5f:
        08:9c:ed:5e:f9:7d:8e:71:99:04:b3:0e:5a:88:3b:4f:49:a0:
        f4:66:2b:8c:44:9b:ec:23:c8:21:08:6e:0c:76:92:f8:cf:ee:
        d3:d9:46:f2:ed:d0:45:dd:25:a0:e6:b4:5f:06:b2:7a:3d:ee:
        3d:93:6e:21:e1:ea:0f:03:2b:6a:9d:42:8f:71:06:08:48:c1:
        6a:f9:6f:68:77:53:37:ae:6d:b5:38:00:01:01:ea:a0:d9:4d:
        14:8e:c5:6a
-----BEGIN CERTIFICATE-----
MIIDzzCCAregAwIBAgIBAjANBgkqhkiG9w0BAQUFADB0MRMwEQYKCZImiZPyLGQB
GRYDb3JnMRYwFAYKCZImiZPyLGQBGRYGc2ltcGxlMRMwEQYDVQQKDApTaW1wbGUg
SW5jMRcwFQYDVQQLDA5TaW1wbGUgUm9vdCBDQTEXMBUGA1UEAwwOU2ltcGxlIFJv
b3QgQ0EwHhcNMjMxMjAzMDU1MDAyWhcNMzMxMjAyMDU1MDAyWjB6MRMwEQYKCZIm
iZPyLGQBGRYDb3JnMRYwFAYKCZImiZPyLGQBGRYGc2ltcGxlMRMwEQYDVQQKDApT
aW1wbGUgSW5jMRowGAYDVQQLDBFTaW1wbGUgU2lnbmluZyBDQTEaMBgGA1UEAwwR
U2ltcGxlIFNpZ25pbmcgQ0EwggEiMA0GCSqGSIb3DQEBAQUAA4IBDwAwggEKAoIB
AQCxC9VE4Re+6rabCOpgD0mWIlok7PIhlRW5vKN1xQLNHWvv+UX47P5DkAvZWVJI
c/s2TH98e6xPSTEY9vwdraKGZUSCPwiaPzWO2Tpb3NA2IxNJNPEkVXRbylEya4WG
NOf8hWbSsEsnLrJRaTlN8o2RXXJB7GVVWBvvDl7LQO32J8fvbYTtg+JJhm4H2ooI
0neQ+QlqTr4UzMQvCknvAd2/bq9qGodrG3BxcmwjEqhD2P1fUz9F1fl2vBmsoIjF
bQfjvn0idLVAPSHo6pm0gl7OBtU6L1eiJpAEgDAyggRtrFS7dee/Uv/ZgGYPEvxD
71ZJ4LHy6a8yrtrcvFv6/KFdAgMBAAGjZjBkMA4GA1UdDwEB/wQEAwIBBjASBgNV
HRMBAf8ECDAGAQH/AgEAMB0GA1UdDgQWBBT5bAyII32bGROf/cWZJSnFGhGCwjAf
BgNVHSMEGDAWgBS3trD1A/TR/vgLu64xPt96GfB7RzANBgkqhkiG9w0BAQUFAAOC
AQEAJzP1d3z5av95mozoNdK6yIqB5bBRJvq5AZY/6Q9fVY+XyJcbkkXRg0h/XvPf
5IijkAtw2FndxbLH2loemuNzr8z2F17iLsrwplfgKo1YLnDhJNpqKlrPEFfIcoQC
GxWOaP/F8YGXlUntPEMMaqXp3xQLbNdyuqiuMQExBZgefIVVRwbGijFT9td4v80U
KbuenCg6pSx9Ad8d0QxTEqMTgk9fCJztXvl9jnGZBLMOWog7T0mg9GYrjESb7CPI
IQhuDHaS+M/u09lG8u3QRd0loOa0Xwayej3uPZNuIeHqDwMrap1Cj3EGCEjBavlv
aHdTN65ttTgAAQHqoNlNFI7Fag==
-----END CERTIFICATE-----
Certificate:
    Data:
        Version: 3 (0x2)
        Serial Number: 1 (0x1)
        Signature Algorithm: sha1WithRSAEncryption
        Issuer: DC=org, DC=simple, O=Simple Inc, OU=Simple Root CA, CN=Simple Root CA
        Validity
            Not Before: Dec  3 05:11:48 2023 GMT
            Not After : Dec  2 05:11:48 2033 GMT
        Subject: DC=org, DC=simple, O=Simple Inc, OU=Simple Root CA, CN=Simple Root CA
        Subject Public Key Info:
            Public Key Algorithm: rsaEncryption
                Public-Key: (2048 bit)
                Modulus:
                    00:d0:38:25:8b:95:9e:cc:2e:5a:18:6d:5e:5c:72:
                    c2:25:a4:63:15:68:e9:9c:e9:ef:53:e3:dd:43:21:
                    ab:a3:0a:fd:2a:c7:83:24:38:f9:42:93:a8:ae:72:
                    84:2b:98:6f:5d:87:4a:ae:6e:b4:16:eb:0b:49:0a:
                    e5:da:e8:2a:ca:31:71:f3:92:bf:14:b0:77:01:69:
                    82:5e:ee:93:2a:f9:ed:66:88:1e:a3:75:df:bf:bd:
                    f9:8c:2a:c2:bd:57:23:50:f9:bd:34:1b:64:d5:eb:
                    03:d4:a9:91:2b:f0:84:fa:08:dd:11:3b:3c:20:94:
                    73:50:2d:2a:bf:78:71:55:65:57:e7:2f:52:48:49:
                    fa:32:6e:af:6a:b5:e2:5c:c9:f3:9f:f4:76:d6:c0:
                    b5:10:55:e7:45:98:c5:de:96:76:a7:2b:b6:25:b7:
                    b7:6c:eb:e8:6b:e7:62:b1:38:78:95:2c:f1:25:12:
                    44:77:d2:72:89:ec:95:bc:76:70:fe:ad:ce:c0:7f:
                    25:a8:0c:9f:dd:e5:24:61:83:66:d2:05:1f:79:f0:
                    27:41:5e:90:73:39:b9:41:27:76:d1:a6:e1:86:4e:
                    56:ea:4e:fd:05:61:27:bf:59:75:f0:38:ab:56:04:
                    56:8f:2b:f6:cf:00:74:99:83:e2:75:b8:a2:5f:d6:
                    27:e7
                Exponent: 65537 (0x10001)
        X509v3 extensions:
            X509v3 Key Usage: critical
                Certificate Sign, CRL Sign
            X509v3 Basic Constraints: critical
                CA:TRUE
            X509v3 Subject Key Identifier: 
                B7:B6:B0:F5:03:F4:D1:FE:F8:0B:BB:AE:31:3E:DF:7A:19:F0:7B:47
            X509v3 Authority Key Identifier: 
                B7:B6:B0:F5:03:F4:D1:FE:F8:0B:BB:AE:31:3E:DF:7A:19:F0:7B:47
    Signature Algorithm: sha1WithRSAEncryption
    Signature Value:
        a3:fb:f0:8e:1c:06:1c:a5:22:69:8f:48:de:d4:14:06:fc:f9:
        ad:ea:d9:29:4b:a0:38:da:86:3d:8b:63:cb:fb:db:c9:ad:3d:
        00:d3:f6:ab:29:5d:dd:ac:67:82:97:d8:80:24:3d:5f:88:5e:
        80:cb:3b:1e:73:1a:2b:9b:a6:66:d4:e6:14:13:68:a0:7f:dd:
        e1:19:bc:75:05:33:dd:4b:73:9a:de:71:52:5c:79:73:c3:4c:
        fd:31:2c:8c:b6:72:03:2c:57:d9:44:5a:99:6d:ee:5b:51:0f:
        d9:97:0b:1c:0d:cf:bc:77:69:d2:c5:23:d2:6a:da:5a:d0:31:
        ad:5e:0e:e6:3e:4e:89:f7:5f:a4:a4:7d:da:fe:fd:42:c2:94:
        30:bb:dd:70:c2:45:31:aa:54:5a:61:89:64:ad:bc:f3:2f:f7:
        04:f7:53:ea:ad:75:d1:f8:46:4b:5c:5c:c1:d5:30:20:18:e0:
        b5:34:22:9e:1e:ec:4b:17:31:cc:24:a5:eb:df:5a:01:cc:57:
        a8:10:d5:92:2e:d3:93:9d:14:e1:8f:dc:90:52:99:af:71:76:
        c0:ae:33:bf:ed:19:66:8a:8a:f7:11:38:38:e2:20:4a:e4:8b:
        44:bc:26:35:f4:dc:ea:bd:0d:e5:ee:b1:4a:b6:26:a5:81:5e:
        29:d3:f2:72
-----BEGIN CERTIFICATE-----
MIIDxjCCAq6gAwIBAgIBATANBgkqhkiG9w0BAQUFADB0MRMwEQYKCZImiZPyLGQB
GRYDb3JnMRYwFAYKCZImiZPyLGQBGRYGc2ltcGxlMRMwEQYDVQQKDApTaW1wbGUg
SW5jMRcwFQYDVQQLDA5TaW1wbGUgUm9vdCBDQTEXMBUGA1UEAwwOU2ltcGxlIFJv
b3QgQ0EwHhcNMjMxMjAzMDUxMTQ4WhcNMzMxMjAyMDUxMTQ4WjB0MRMwEQYKCZIm
iZPyLGQBGRYDb3JnMRYwFAYKCZImiZPyLGQBGRYGc2ltcGxlMRMwEQYDVQQKDApT
aW1wbGUgSW5jMRcwFQYDVQQLDA5TaW1wbGUgUm9vdCBDQTEXMBUGA1UEAwwOU2lt
cGxlIFJvb3QgQ0EwggEiMA0GCSqGSIb3DQEBAQUAA4IBDwAwggEKAoIBAQDQOCWL
lZ7MLloYbV5ccsIlpGMVaOmc6e9T491DIaujCv0qx4MkOPlCk6iucoQrmG9dh0qu
brQW6wtJCuXa6CrKMXHzkr8UsHcBaYJe7pMq+e1miB6jdd+/vfmMKsK9VyNQ+b00
G2TV6wPUqZEr8IT6CN0ROzwglHNQLSq/eHFVZVfnL1JISfoybq9qteJcyfOf9HbW
wLUQVedFmMXelnanK7Ylt7ds6+hr52KxOHiVLPElEkR30nKJ7JW8dnD+rc7AfyWo
DJ/d5SRhg2bSBR958CdBXpBzOblBJ3bRpuGGTlbqTv0FYSe/WXXwOKtWBFaPK/bP
AHSZg+J1uKJf1ifnAgMBAAGjYzBhMA4GA1UdDwEB/wQEAwIBBjAPBgNVHRMBAf8E
BTADAQH/MB0GA1UdDgQWBBS3trD1A/TR/vgLu64xPt96GfB7RzAfBgNVHSMEGDAW
gBS3trD1A/TR/vgLu64xPt96GfB7RzANBgkqhkiG9w0BAQUFAAOCAQEAo/vwjhwG
HKUiaY9I3tQUBvz5rerZKUugONqGPYtjy/vbya09ANP2qyld3axngpfYgCQ9X4he
gMs7HnMaK5umZtTmFBNooH/d4Rm8dQUz3Utzmt5xUlx5c8NM/TEsjLZyAyxX2URa
mW3uW1EP2ZcLHA3PvHdp0sUj0mraWtAxrV4O5j5OifdfpKR92v79QsKUMLvdcMJF
MapUWmGJZK288y/3BPdT6q110fhGS1xcwdUwIBjgtTQinh7sSxcxzCSl699aAcxX
qBDVki7Tk50U4Y/ckFKZr3F2wK4zv+0ZZoqK9xE4OOIgSuSLRLwmNfTc6r0N5e6x
SrYmpYFeKdPycg==
-----END CERTIFICATE-----
