Certificate:
    Data:
        Version: 3 (0x2)
        Serial Number: 1 (0x1)
        Signature Algorithm: sha1WithRSAEncryption
        Issuer: DC=org, DC=simple, O=Simple Inc, OU=Simple Root CA, CN=Simple Root CA
        Validity
            Not Before: Dec  3 05:11:48 2023 GMT
            Not After : Dec  2 05:11:48 2033 GMT
        Subject: DC=org, DC=simple, O=Simple Inc, OU=Simple Root CA, CN=Simple Root CA
        Subject Public Key Info:
            Public Key Algorithm: rsaEncryption
                Public-Key: (2048 bit)
                Modulus:
                    00:d0:38:25:8b:95:9e:cc:2e:5a:18:6d:5e:5c:72:
                    c2:25:a4:63:15:68:e9:9c:e9:ef:53:e3:dd:43:21:
                    ab:a3:0a:fd:2a:c7:83:24:38:f9:42:93:a8:ae:72:
                    84:2b:98:6f:5d:87:4a:ae:6e:b4:16:eb:0b:49:0a:
                    e5:da:e8:2a:ca:31:71:f3:92:bf:14:b0:77:01:69:
                    82:5e:ee:93:2a:f9:ed:66:88:1e:a3:75:df:bf:bd:
                    f9:8c:2a:c2:bd:57:23:50:f9:bd:34:1b:64:d5:eb:
                    03:d4:a9:91:2b:f0:84:fa:08:dd:11:3b:3c:20:94:
                    73:50:2d:2a:bf:78:71:55:65:57:e7:2f:52:48:49:
                    fa:32:6e:af:6a:b5:e2:5c:c9:f3:9f:f4:76:d6:c0:
                    b5:10:55:e7:45:98:c5:de:96:76:a7:2b:b6:25:b7:
                    b7:6c:eb:e8:6b:e7:62:b1:38:78:95:2c:f1:25:12:
                    44:77:d2:72:89:ec:95:bc:76:70:fe:ad:ce:c0:7f:
                    25:a8:0c:9f:dd:e5:24:61:83:66:d2:05:1f:79:f0:
                    27:41:5e:90:73:39:b9:41:27:76:d1:a6:e1:86:4e:
                    56:ea:4e:fd:05:61:27:bf:59:75:f0:38:ab:56:04:
                    56:8f:2b:f6:cf:00:74:99:83:e2:75:b8:a2:5f:d6:
                    27:e7
                Exponent: 65537 (0x10001)
        X509v3 extensions:
            X509v3 Key Usage: critical
                Certificate Sign, CRL Sign
            X509v3 Basic Constraints: critical
                CA:TRUE
            X509v3 Subject Key Identifier: 
                B7:B6:B0:F5:03:F4:D1:FE:F8:0B:BB:AE:31:3E:DF:7A:19:F0:7B:47
            X509v3 Authority Key Identifier: 
                B7:B6:B0:F5:03:F4:D1:FE:F8:0B:BB:AE:31:3E:DF:7A:19:F0:7B:47
    Signature Algorithm: sha1WithRSAEncryption
    Signature Value:
        a3:fb:f0:8e:1c:06:1c:a5:22:69:8f:48:de:d4:14:06:fc:f9:
        ad:ea:d9:29:4b:a0:38:da:86:3d:8b:63:cb:fb:db:c9:ad:3d:
        00:d3:f6:ab:29:5d:dd:ac:67:82:97:d8:80:24:3d:5f:88:5e:
        80:cb:3b:1e:73:1a:2b:9b:a6:66:d4:e6:14:13:68:a0:7f:dd:
        e1:19:bc:75:05:33:dd:4b:73:9a:de:71:52:5c:79:73:c3:4c:
        fd:31:2c:8c:b6:72:03:2c:57:d9:44:5a:99:6d:ee:5b:51:0f:
        d9:97:0b:1c:0d:cf:bc:77:69:d2:c5:23:d2:6a:da:5a:d0:31:
        ad:5e:0e:e6:3e:4e:89:f7:5f:a4:a4:7d:da:fe:fd:42:c2:94:
        30:bb:dd:70:c2:45:31:aa:54:5a:61:89:64:ad:bc:f3:2f:f7:
        04:f7:53:ea:ad:75:d1:f8:46:4b:5c:5c:c1:d5:30:20:18:e0:
        b5:34:22:9e:1e:ec:4b:17:31:cc:24:a5:eb:df:5a:01:cc:57:
        a8:10:d5:92:2e:d3:93:9d:14:e1:8f:dc:90:52:99:af:71:76:
        c0:ae:33:bf:ed:19:66:8a:8a:f7:11:38:38:e2:20:4a:e4:8b:
        44:bc:26:35:f4:dc:ea:bd:0d:e5:ee:b1:4a:b6:26:a5:81:5e:
        29:d3:f2:72
-----BEGIN CERTIFICATE-----
MIIDxjCCAq6gAwIBAgIBATANBgkqhkiG9w0BAQUFADB0MRMwEQYKCZImiZPyLGQB
GRYDb3JnMRYwFAYKCZImiZPyLGQBGRYGc2ltcGxlMRMwEQYDVQQKDApTaW1wbGUg
SW5jMRcwFQYDVQQLDA5TaW1wbGUgUm9vdCBDQTEXMBUGA1UEAwwOU2ltcGxlIFJv
b3QgQ0EwHhcNMjMxMjAzMDUxMTQ4WhcNMzMxMjAyMDUxMTQ4WjB0MRMwEQYKCZIm
iZPyLGQBGRYDb3JnMRYwFAYKCZImiZPyLGQBGRYGc2ltcGxlMRMwEQYDVQQKDApT
aW1wbGUgSW5jMRcwFQYDVQQLDA5TaW1wbGUgUm9vdCBDQTEXMBUGA1UEAwwOU2lt
cGxlIFJvb3QgQ0EwggEiMA0GCSqGSIb3DQEBAQUAA4IBDwAwggEKAoIBAQDQOCWL
lZ7MLloYbV5ccsIlpGMVaOmc6e9T491DIaujCv0qx4MkOPlCk6iucoQrmG9dh0qu
brQW6wtJCuXa6CrKMXHzkr8UsHcBaYJe7pMq+e1miB6jdd+/vfmMKsK9VyNQ+b00
G2TV6wPUqZEr8IT6CN0ROzwglHNQLSq/eHFVZVfnL1JISfoybq9qteJcyfOf9HbW
wLUQVedFmMXelnanK7Ylt7ds6+hr52KxOHiVLPElEkR30nKJ7JW8dnD+rc7AfyWo
DJ/d5SRhg2bSBR958CdBXpBzOblBJ3bRpuGGTlbqTv0FYSe/WXXwOKtWBFaPK/bP
AHSZg+J1uKJf1ifnAgMBAAGjYzBhMA4GA1UdDwEB/wQEAwIBBjAPBgNVHRMBAf8E
BTADAQH/MB0GA1UdDgQWBBS3trD1A/TR/vgLu64xPt96GfB7RzAfBgNVHSMEGDAW
gBS3trD1A/TR/vgLu64xPt96GfB7RzANBgkqhkiG9w0BAQUFAAOCAQEAo/vwjhwG
HKUiaY9I3tQUBvz5rerZKUugONqGPYtjy/vbya09ANP2qyld3axngpfYgCQ9X4he
gMs7HnMaK5umZtTmFBNooH/d4Rm8dQUz3Utzmt5xUlx5c8NM/TEsjLZyAyxX2URa
mW3uW1EP2ZcLHA3PvHdp0sUj0mraWtAxrV4O5j5OifdfpKR92v79QsKUMLvdcMJF
MapUWmGJZK288y/3BPdT6q110fhGS1xcwdUwIBjgtTQinh7sSxcxzCSl699aAcxX
qBDVki7Tk50U4Y/ckFKZr3F2wK4zv+0ZZoqK9xE4OOIgSuSLRLwmNfTc6r0N5e6x
SrYmpYFeKdPycg==
-----END CERTIFICATE-----
